target datalayout = "e-m:e-p270:32:32-p271:32:32-p272:64:64-i64:64-i128:128-f80:128-n8:16:32:64-S128"
target triple = "x86_64-unknown-linux-gnu"

%"class.llvh::ArrayRef.18" = type { ptr, i64 }
%"struct.hermes::hbc::HBCExceptionHandlerInfo" = type { i32, i32, i32 }

; Function Attrs: mustprogress nounwind uwtable
define linkonce_odr hidden noundef nonnull align 1 dereferenceable(12) ptr @_ZNK4llvh8ArrayRefIN6hermes3hbc23HBCExceptionHandlerInfoEEixEm(ptr noundef nonnull align 8 dereferenceable(16) %this, i64 noundef %Index) #0 comdat align 2 {
entry:
  %this.addr = alloca ptr, align 8
  %Index.addr = alloca i64, align 8
  store ptr %this, ptr %this.addr, align 8
  store i64 %Index, ptr %Index.addr, align 8
  %this1 = load ptr, ptr %this.addr, align 8
  %Data = getelementptr inbounds %"class.llvh::ArrayRef.18", ptr %this1, i32 0, i32 0
  %0 = load ptr, ptr %Data, align 8
  %1 = load i64, ptr %Index.addr, align 8
  %arrayidx = getelementptr inbounds %"struct.hermes::hbc::HBCExceptionHandlerInfo", ptr %0, i64 %1
  ret ptr %arrayidx
}

; Function Attrs: mustprogress nounwind uwtable
define linkonce_odr hidden noundef i64 @_ZNK4llvh8ArrayRefIN6hermes3hbc23HBCExceptionHandlerInfoEE4sizeEv(ptr noundef nonnull align 8 dereferenceable(16) %this) #0 comdat align 2 {
entry:
  %this.addr = alloca ptr, align 8
  store ptr %this, ptr %this.addr, align 8
  %this1 = load ptr, ptr %this.addr, align 8
  %Length = getelementptr inbounds %"class.llvh::ArrayRef.18", ptr %this1, i32 0, i32 1
  %0 = load i64, ptr %Length, align 8
  ret i64 %0
}

; Function Attrs: mustprogress nounwind uwtable
define hidden noundef i32 @_ZNK6hermes3hbc14BCProviderBase21findCatchTargetOffsetEjj(ptr noundef nonnull align 8 dereferenceable(280) %this, i32 noundef %functionID, i32 noundef %exceptionOffset) #0 align 2 {
entry:
  %retval = alloca i32, align 4
  %this.addr = alloca ptr, align 8
  %functionID.addr = alloca i32, align 4
  %exceptionOffset.addr = alloca i32, align 4
  %exceptions = alloca %"class.llvh::ArrayRef.18", align 8
  %i = alloca i32, align 4
  %e = alloca i32, align 4
  store ptr %this, ptr %this.addr, align 8
  store i32 %functionID, ptr %functionID.addr, align 4
  store i32 %exceptionOffset, ptr %exceptionOffset.addr, align 4
  %this1 = load ptr, ptr %this.addr, align 8
  %0 = load i32, ptr %functionID.addr, align 4
  %vtable = load ptr, ptr %this1, align 8
  %vfn = getelementptr inbounds ptr, ptr %vtable, i64 6
  %1 = load ptr, ptr %vfn, align 8
  %call = call { ptr, i64 } %1(ptr noundef nonnull align 8 dereferenceable(280) %this1, i32 noundef %0)
  %2 = getelementptr inbounds { ptr, i64 }, ptr %exceptions, i32 0, i32 0
  %3 = extractvalue { ptr, i64 } %call, 0
  store ptr %3, ptr %2, align 8
  %4 = getelementptr inbounds { ptr, i64 }, ptr %exceptions, i32 0, i32 1
  %5 = extractvalue { ptr, i64 } %call, 1
  store i64 %5, ptr %4, align 8
  store i32 0, ptr %i, align 4
  %call2 = call noundef i64 @_ZNK4llvh8ArrayRefIN6hermes3hbc23HBCExceptionHandlerInfoEE4sizeEv(ptr noundef nonnull align 8 dereferenceable(16) %exceptions)
  %conv = trunc i64 %call2 to i32
  store i32 %conv, ptr %e, align 4
  br label %for.cond

for.cond:                                         ; preds = %for.inc, %entry
  %6 = load i32, ptr %i, align 4
  %7 = load i32, ptr %e, align 4
  %cmp = icmp ult i32 %6, %7
  br i1 %cmp, label %for.body, label %for.end

for.body:                                         ; preds = %for.cond
  %8 = load i32, ptr %i, align 4
  %conv3 = zext i32 %8 to i64
  %call4 = call noundef nonnull align 1 dereferenceable(12) ptr @_ZNK4llvh8ArrayRefIN6hermes3hbc23HBCExceptionHandlerInfoEEixEm(ptr noundef nonnull align 8 dereferenceable(16) %exceptions, i64 noundef %conv3)
  %start = getelementptr inbounds %"struct.hermes::hbc::HBCExceptionHandlerInfo", ptr %call4, i32 0, i32 0
  %9 = load i32, ptr %start, align 1
  %10 = load i32, ptr %exceptionOffset.addr, align 4
  %cmp5 = icmp ule i32 %9, %10
  br i1 %cmp5, label %land.lhs.true, label %if.end

land.lhs.true:                                    ; preds = %for.body
  %11 = load i32, ptr %exceptionOffset.addr, align 4
  %12 = load i32, ptr %i, align 4
  %conv6 = zext i32 %12 to i64
  %call7 = call noundef nonnull align 1 dereferenceable(12) ptr @_ZNK4llvh8ArrayRefIN6hermes3hbc23HBCExceptionHandlerInfoEEixEm(ptr noundef nonnull align 8 dereferenceable(16) %exceptions, i64 noundef %conv6)
  %end = getelementptr inbounds %"struct.hermes::hbc::HBCExceptionHandlerInfo", ptr %call7, i32 0, i32 1
  %13 = load i32, ptr %end, align 1
  %cmp8 = icmp ult i32 %11, %13
  br i1 %cmp8, label %if.then, label %if.end

if.then:                                          ; preds = %land.lhs.true
  %14 = load i32, ptr %i, align 4
  %conv9 = zext i32 %14 to i64
  %call10 = call noundef nonnull align 1 dereferenceable(12) ptr @_ZNK4llvh8ArrayRefIN6hermes3hbc23HBCExceptionHandlerInfoEEixEm(ptr noundef nonnull align 8 dereferenceable(16) %exceptions, i64 noundef %conv9)
  %target = getelementptr inbounds %"struct.hermes::hbc::HBCExceptionHandlerInfo", ptr %call10, i32 0, i32 2
  %15 = load i32, ptr %target, align 1
  store i32 %15, ptr %retval, align 4
  br label %return

if.end:                                           ; preds = %land.lhs.true, %for.body
  br label %for.inc

for.inc:                                          ; preds = %if.end
  %16 = load i32, ptr %i, align 4
  %inc = add i32 %16, 1
  store i32 %inc, ptr %i, align 4
  br label %for.cond, !llvm.loop !4

for.end:                                          ; preds = %for.cond
  store i32 -1, ptr %retval, align 4
  br label %return

return:                                           ; preds = %for.end, %if.then
  %17 = load i32, ptr %retval, align 4
  ret i32 %17
}