; Function Attrs: mustprogress nounwind uwtable
define hidden noundef i32 @_ZNK6hermes3hbc14BCProviderBase21findCatchTargetOffsetEjj(ptr noundef nonnull align 8 dereferenceable(280) %this, i32 noundef %functionID, i32 noundef %exceptionOffset) local_unnamed_addr #0 align 2 {
entry:
  %vtable = load ptr, ptr %this, align 8
  %vfn = getelementptr inbounds i8, ptr %vtable, i64 48
  %0 = load ptr, ptr %vfn, align 8
  %call = tail call { ptr, i64 } %0(ptr noundef nonnull align 8 dereferenceable(280) %this, i32 noundef %functionID) #19
  %1 = extractvalue { ptr, i64 } %call, 0
  %2 = extractvalue { ptr, i64 } %call, 1
  %3 = and i64 %2, 4294967295
  %cmp10.not = icmp eq i64 %3, 0
  br i1 %cmp10.not, label %return, label %for.body.preheader

for.body.preheader:                               ; preds = %entry
  %wide.trip.count = and i64 %2, 4294967295
  br label %for.body

for.body:                                         ; preds = %for.body.preheader, %for.inc
  %indvars.iv = phi i64 [ 0, %for.body.preheader ], [ %indvars.iv.next, %for.inc ]
  %arrayidx.i = getelementptr inbounds %"struct.hermes::hbc::HBCExceptionHandlerInfo", ptr %1, i64 %indvars.iv
  %4 = load i32, ptr %arrayidx.i, align 1
  %cmp5.not = icmp ugt i32 %4, %exceptionOffset
  br i1 %cmp5.not, label %for.inc, label %land.lhs.true

land.lhs.true:                                    ; preds = %for.body
  %end = getelementptr inbounds i8, ptr %arrayidx.i, i64 4
  %5 = load i32, ptr %end, align 1
  %cmp8 = icmp ugt i32 %5, %exceptionOffset
  br i1 %cmp8, label %if.then, label %for.inc

if.then:                                          ; preds = %land.lhs.true
  %target = getelementptr inbounds i8, ptr %arrayidx.i, i64 8
  %6 = load i32, ptr %target, align 1
  br label %return

for.inc:                                          ; preds = %for.body, %land.lhs.true
  %indvars.iv.next = add nuw nsw i64 %indvars.iv, 1
  %exitcond.not = icmp eq i64 %indvars.iv.next, %wide.trip.count
  br i1 %exitcond.not, label %return, label %for.body, !llvm.loop !4

return:                                           ; preds = %for.inc, %entry, %if.then
  %retval.0 = phi i32 [ %6, %if.then ], [ -1, %entry ], [ -1, %for.inc ]
  ret i32 %retval.0
}